; ModuleID = '22/252.c'
source_filename = "22/252.c"
target datalayout = "e-m:e-p270:32:32-p271:32:32-p272:64:64-i64:64-f80:128-n8:16:32:64-S128"
target triple = "x86_64-pc-linux-gnu"

@.str = private unnamed_addr constant [3 x i8] c"No\00", align 1
@.str.1 = private unnamed_addr constant [3 x i8] c"%u\00", align 1

; Function Attrs: noinline nounwind uwtable
define dso_local void @main() #0 {
  %1 = alloca [10000 x i8], align 16
  %2 = alloca [301 x i32], align 16
  %3 = alloca i32, align 4
  %4 = alloca i32, align 4
  %5 = alloca i32, align 4
  %6 = alloca i32, align 4
  %7 = alloca i32, align 4
  %8 = alloca i32, align 4
  %9 = alloca i32, align 4
  store i32 0, i32* %4, align 4
  store i32 0, i32* %5, align 4
  %10 = getelementptr inbounds [10000 x i8], [10000 x i8]* %1, i64 0, i64 0
  %11 = call i32 (i8*, ...) bitcast (i32 (...)* @gets to i32 (i8*, ...)*)(i8* %10)
  %12 = getelementptr inbounds [10000 x i8], [10000 x i8]* %1, i64 0, i64 0
  %13 = call i64 @strlen(i8* %12) #3
  %14 = trunc i64 %13 to i32
  store i32 %14, i32* %8, align 4
  store i32 0, i32* %6, align 4
  store i32 1, i32* %9, align 4
  br label %15

15:                                               ; preds = %30, %0
  %16 = load i32, i32* %6, align 4
  %17 = load i32, i32* %8, align 4
  %18 = icmp sle i32 %16, %17
  br i1 %18, label %19, label %33

19:                                               ; preds = %15
  %20 = load i32, i32* %6, align 4
  %21 = sext i32 %20 to i64
  %22 = getelementptr inbounds [10000 x i8], [10000 x i8]* %1, i64 0, i64 %21
  %23 = load i8, i8* %22, align 1
  %24 = sext i8 %23 to i32
  %25 = icmp eq i32 %24, 44
  br i1 %25, label %26, label %29

26:                                               ; preds = %19
  %27 = load i32, i32* %9, align 4
  %28 = add nsw i32 %27, 1
  store i32 %28, i32* %9, align 4
  br label %29

29:                                               ; preds = %26, %19
  br label %30

30:                                               ; preds = %29
  %31 = load i32, i32* %6, align 4
  %32 = add nsw i32 %31, 1
  store i32 %32, i32* %6, align 4
  br label %15

33:                                               ; preds = %15
  store i32 1, i32* %6, align 4
  store i32 0, i32* %7, align 4
  br label %34

34:                                               ; preds = %90, %33
  %35 = load i32, i32* %6, align 4
  %36 = load i32, i32* %9, align 4
  %37 = icmp sle i32 %35, %36
  br i1 %37, label %38, label %42

38:                                               ; preds = %34
  %39 = load i32, i32* %7, align 4
  %40 = load i32, i32* %8, align 4
  %41 = icmp slt i32 %39, %40
  br label %42

42:                                               ; preds = %38, %34
  %43 = phi i1 [ false, %34 ], [ %41, %38 ]
  br i1 %43, label %44, label %93

44:                                               ; preds = %42
  %45 = load i32, i32* %6, align 4
  %46 = sext i32 %45 to i64
  %47 = getelementptr inbounds [301 x i32], [301 x i32]* %2, i64 0, i64 %46
  store i32 0, i32* %47, align 4
  store i32 1, i32* %3, align 4
  br label %48

48:                                               ; preds = %86, %44
  %49 = load i32, i32* %3, align 4
  %50 = icmp ule i32 %49, 4
  br i1 %50, label %51, label %89

51:                                               ; preds = %48
  %52 = load i32, i32* %7, align 4
  %53 = sext i32 %52 to i64
  %54 = getelementptr inbounds [10000 x i8], [10000 x i8]* %1, i64 0, i64 %53
  %55 = load i8, i8* %54, align 1
  %56 = sext i8 %55 to i32
  %57 = icmp ne i32 %56, 44
  br i1 %57, label %58, label %82

58:                                               ; preds = %51
  %59 = load i32, i32* %7, align 4
  %60 = sext i32 %59 to i64
  %61 = getelementptr inbounds [10000 x i8], [10000 x i8]* %1, i64 0, i64 %60
  %62 = load i8, i8* %61, align 1
  %63 = sext i8 %62 to i32
  %64 = icmp ne i32 %63, 0
  br i1 %64, label %65, label %82

65:                                               ; preds = %58
  %66 = load i32, i32* %6, align 4
  %67 = sext i32 %66 to i64
  %68 = getelementptr inbounds [301 x i32], [301 x i32]* %2, i64 0, i64 %67
  %69 = load i32, i32* %68, align 4
  %70 = mul i32 %69, 10
  %71 = load i32, i32* %7, align 4
  %72 = add nsw i32 %71, 1
  store i32 %72, i32* %7, align 4
  %73 = sext i32 %71 to i64
  %74 = getelementptr inbounds [10000 x i8], [10000 x i8]* %1, i64 0, i64 %73
  %75 = load i8, i8* %74, align 1
  %76 = sext i8 %75 to i32
  %77 = add i32 %70, %76
  %78 = sub i32 %77, 48
  %79 = load i32, i32* %6, align 4
  %80 = sext i32 %79 to i64
  %81 = getelementptr inbounds [301 x i32], [301 x i32]* %2, i64 0, i64 %80
  store i32 %78, i32* %81, align 4
  br label %85

82:                                               ; preds = %58, %51
  %83 = load i32, i32* %7, align 4
  %84 = add nsw i32 %83, 1
  store i32 %84, i32* %7, align 4
  br label %89

85:                                               ; preds = %65
  br label %86

86:                                               ; preds = %85
  %87 = load i32, i32* %3, align 4
  %88 = add i32 %87, 1
  store i32 %88, i32* %3, align 4
  br label %48

89:                                               ; preds = %82, %48
  br label %90

90:                                               ; preds = %89
  %91 = load i32, i32* %6, align 4
  %92 = add nsw i32 %91, 1
  store i32 %92, i32* %6, align 4
  br label %34

93:                                               ; preds = %42
  store i32 1, i32* %6, align 4
  br label %94

94:                                               ; preds = %139, %93
  %95 = load i32, i32* %6, align 4
  %96 = load i32, i32* %9, align 4
  %97 = icmp slt i32 %95, %96
  br i1 %97, label %98, label %142

98:                                               ; preds = %94
  store i32 1, i32* %7, align 4
  br label %99

99:                                               ; preds = %135, %98
  %100 = load i32, i32* %7, align 4
  %101 = load i32, i32* %9, align 4
  %102 = load i32, i32* %6, align 4
  %103 = sub nsw i32 %101, %102
  %104 = icmp sle i32 %100, %103
  br i1 %104, label %105, label %138

105:                                              ; preds = %99
  %106 = load i32, i32* %7, align 4
  %107 = sext i32 %106 to i64
  %108 = getelementptr inbounds [301 x i32], [301 x i32]* %2, i64 0, i64 %107
  %109 = load i32, i32* %108, align 4
  %110 = load i32, i32* %7, align 4
  %111 = add nsw i32 %110, 1
  %112 = sext i32 %111 to i64
  %113 = getelementptr inbounds [301 x i32], [301 x i32]* %2, i64 0, i64 %112
  %114 = load i32, i32* %113, align 4
  %115 = icmp ult i32 %109, %114
  br i1 %115, label %116, label %134

116:                                              ; preds = %105
  %117 = load i32, i32* %7, align 4
  %118 = sext i32 %117 to i64
  %119 = getelementptr inbounds [301 x i32], [301 x i32]* %2, i64 0, i64 %118
  %120 = load i32, i32* %119, align 4
  store i32 %120, i32* %3, align 4
  %121 = load i32, i32* %7, align 4
  %122 = add nsw i32 %121, 1
  %123 = sext i32 %122 to i64
  %124 = getelementptr inbounds [301 x i32], [301 x i32]* %2, i64 0, i64 %123
  %125 = load i32, i32* %124, align 4
  %126 = load i32, i32* %7, align 4
  %127 = sext i32 %126 to i64
  %128 = getelementptr inbounds [301 x i32], [301 x i32]* %2, i64 0, i64 %127
  store i32 %125, i32* %128, align 4
  %129 = load i32, i32* %3, align 4
  %130 = load i32, i32* %7, align 4
  %131 = add nsw i32 %130, 1
  %132 = sext i32 %131 to i64
  %133 = getelementptr inbounds [301 x i32], [301 x i32]* %2, i64 0, i64 %132
  store i32 %129, i32* %133, align 4
  br label %134

134:                                              ; preds = %116, %105
  br label %135

135:                                              ; preds = %134
  %136 = load i32, i32* %7, align 4
  %137 = add nsw i32 %136, 1
  store i32 %137, i32* %7, align 4
  br label %99

138:                                              ; preds = %99
  br label %139

139:                                              ; preds = %138
  %140 = load i32, i32* %6, align 4
  %141 = add nsw i32 %140, 1
  store i32 %141, i32* %6, align 4
  br label %94

142:                                              ; preds = %94
  store i32 1, i32* %6, align 4
  br label %143

143:                                              ; preds = %180, %142
  %144 = load i32, i32* %6, align 4
  %145 = load i32, i32* %9, align 4
  %146 = icmp sle i32 %144, %145
  br i1 %146, label %147, label %183

147:                                              ; preds = %143
  %148 = load i32, i32* %6, align 4
  %149 = sext i32 %148 to i64
  %150 = getelementptr inbounds [301 x i32], [301 x i32]* %2, i64 0, i64 %149
  %151 = load i32, i32* %150, align 4
  %152 = load i32, i32* %4, align 4
  %153 = icmp ugt i32 %151, %152
  br i1 %153, label %154, label %159

154:                                              ; preds = %147
  %155 = load i32, i32* %6, align 4
  %156 = sext i32 %155 to i64
  %157 = getelementptr inbounds [301 x i32], [301 x i32]* %2, i64 0, i64 %156
  %158 = load i32, i32* %157, align 4
  store i32 %158, i32* %4, align 4
  br label %179

159:                                              ; preds = %147
  %160 = load i32, i32* %6, align 4
  %161 = sext i32 %160 to i64
  %162 = getelementptr inbounds [301 x i32], [301 x i32]* %2, i64 0, i64 %161
  %163 = load i32, i32* %162, align 4
  %164 = load i32, i32* %5, align 4
  %165 = icmp ugt i32 %163, %164
  br i1 %165, label %166, label %178

166:                                              ; preds = %159
  %167 = load i32, i32* %6, align 4
  %168 = sext i32 %167 to i64
  %169 = getelementptr inbounds [301 x i32], [301 x i32]* %2, i64 0, i64 %168
  %170 = load i32, i32* %169, align 4
  %171 = load i32, i32* %4, align 4
  %172 = icmp ult i32 %170, %171
  br i1 %172, label %173, label %178

173:                                              ; preds = %166
  %174 = load i32, i32* %6, align 4
  %175 = sext i32 %174 to i64
  %176 = getelementptr inbounds [301 x i32], [301 x i32]* %2, i64 0, i64 %175
  %177 = load i32, i32* %176, align 4
  store i32 %177, i32* %5, align 4
  br label %178

178:                                              ; preds = %173, %166, %159
  br label %179

179:                                              ; preds = %178, %154
  br label %180

180:                                              ; preds = %179
  %181 = load i32, i32* %6, align 4
  %182 = add nsw i32 %181, 1
  store i32 %182, i32* %6, align 4
  br label %143

183:                                              ; preds = %143
  %184 = load i32, i32* %5, align 4
  %185 = icmp eq i32 %184, 0
  br i1 %185, label %186, label %188

186:                                              ; preds = %183
  %187 = call i32 (i8*, ...) @printf(i8* getelementptr inbounds ([3 x i8], [3 x i8]* @.str, i64 0, i64 0))
  br label %191

188:                                              ; preds = %183
  %189 = load i32, i32* %5, align 4
  %190 = call i32 (i8*, ...) @printf(i8* getelementptr inbounds ([3 x i8], [3 x i8]* @.str.1, i64 0, i64 0), i32 %189)
  br label %191

191:                                              ; preds = %188, %186
  ret void
}

declare dso_local i32 @gets(...) #1

; Function Attrs: nounwind readonly
declare dso_local i64 @strlen(i8*) #2

declare dso_local i32 @printf(i8*, ...) #1


!llvm.module.flags = !{!0}
!llvm.ident = !{!1}

!0 = !{i32 1, !"wchar_size", i32 4}
!1 = !{!"clang version 10.0.0-4ubuntu1 "}
